target datalayout = "e-m:e-p270:32:32-p271:32:32-p272:64:64-i64:64-i128:128-f80:128-n8:16:32:64-S128"
target triple = "x86_64-pc-linux-gnu"

%"class.cv::Mat" = type { i32, i32, i32, i32, ptr, ptr, ptr, ptr, ptr, ptr, %"struct.cv::MatSize", %"struct.cv::MatStep" }
%"struct.cv::MatSize" = type { ptr }
%"struct.cv::MatStep" = type { ptr, [2 x i64] }
%"class.cv::MatExpr" = type { ptr, i32, %"class.cv::Mat", %"class.cv::Mat", %"class.cv::Mat", double, double, %"class.cv::Scalar_" }
%"class.cv::Scalar_" = type { %"class.cv::Vec" }
%"class.cv::Vec" = type { %"class.cv::Matx" }
%"class.cv::Matx" = type { [4 x double] }
%"class.cv::Point_" = type { float, float }

; Function Attrs: mustprogress nounwind uwtable
define linkonce_odr hidden noundef float @_Z3sqrf(float noundef %0) #7 comdat {
  %2 = alloca float, align 4
  store float %0, ptr %2, align 4
  %3 = load float, ptr %2, align 4
  %4 = load float, ptr %2, align 4
  %5 = fmul float %3, %4
  ret float %5
}

; Function Attrs: mustprogress nounwind uwtable
define linkonce_odr hidden noundef nonnull align 4 dereferenceable(4) ptr @_ZN2cv3Mat2atIfEERT_ii(ptr noundef nonnull align 8 dereferenceable(96) %0, i32 noundef %1, i32 noundef %2) #7 comdat align 2 {
  %4 = alloca ptr, align 8
  %5 = alloca i32, align 4
  %6 = alloca i32, align 4
  store ptr %0, ptr %4, align 8
  store i32 %1, ptr %5, align 4
  store i32 %2, ptr %6, align 4
  %7 = load ptr, ptr %4, align 8
  %8 = getelementptr inbounds %"class.cv::Mat", ptr %7, i32 0, i32 4
  %9 = load ptr, ptr %8, align 8
  %10 = getelementptr inbounds %"class.cv::Mat", ptr %7, i32 0, i32 11
  %11 = getelementptr inbounds %"struct.cv::MatStep", ptr %10, i32 0, i32 0
  %12 = load ptr, ptr %11, align 8
  %13 = getelementptr inbounds i64, ptr %12, i64 0
  %14 = load i64, ptr %13, align 8
  %15 = load i32, ptr %5, align 4
  %16 = sext i32 %15 to i64
  %17 = mul i64 %14, %16
  %18 = getelementptr inbounds i8, ptr %9, i64 %17
  %19 = load i32, ptr %6, align 4
  %20 = sext i32 %19 to i64
  %21 = getelementptr inbounds float, ptr %18, i64 %20
  ret ptr %21
}

; Function Attrs: mustprogress uwtable
define linkonce_odr hidden void @_ZNK2cv7MatExprcvNS_3MatEEv(ptr dead_on_unwind noalias writable sret(%"class.cv::Mat") align 8 %0, ptr noundef nonnull align 8 dereferenceable(352) %1) #4 comdat align 2 personality ptr @__gxx_personality_v0 {
  %3 = alloca ptr, align 8
  %4 = alloca ptr, align 8
  %5 = alloca i1, align 1
  %6 = alloca ptr, align 8
  %7 = alloca i32, align 4
  store ptr %0, ptr %3, align 8
  store ptr %1, ptr %4, align 8
  %8 = load ptr, ptr %4, align 8
  store i1 false, ptr %5, align 1
  call void @_ZN2cv3MatC1Ev(ptr noundef nonnull align 8 dereferenceable(96) %0) #3
  %9 = getelementptr inbounds %"class.cv::MatExpr", ptr %8, i32 0, i32 0
  %10 = load ptr, ptr %9, align 8
  %11 = load ptr, ptr %10, align 8
  %12 = getelementptr inbounds ptr, ptr %11, i64 3
  %13 = load ptr, ptr %12, align 8
  invoke void %13(ptr noundef nonnull align 8 dereferenceable(8) %10, ptr noundef nonnull align 8 dereferenceable(352) %8, ptr noundef nonnull align 8 dereferenceable(96) %0, i32 noundef -1)
          to label %14 unwind label %16

14:                                               ; preds = %2
  store i1 true, ptr %5, align 1
  %15 = load i1, ptr %5, align 1
  br i1 %15, label %21, label %20

16:                                               ; preds = %2
  %17 = landingpad { ptr, i32 }
          cleanup
  %18 = extractvalue { ptr, i32 } %17, 0
  store ptr %18, ptr %6, align 8
  %19 = extractvalue { ptr, i32 } %17, 1
  store i32 %19, ptr %7, align 4
  call void @_ZN2cv3MatD1Ev(ptr noundef nonnull align 8 dereferenceable(96) %0) #3
  br label %22

20:                                               ; preds = %14
  call void @_ZN2cv3MatD1Ev(ptr noundef nonnull align 8 dereferenceable(96) %0) #3
  br label %21

21:                                               ; preds = %20, %14
  ret void

22:                                               ; preds = %16
  %23 = load ptr, ptr %6, align 8
  %24 = load i32, ptr %7, align 4
  %25 = insertvalue { ptr, i32 } poison, ptr %23, 0
  %26 = insertvalue { ptr, i32 } %25, i32 %24, 1
  resume { ptr, i32 } %26
}

; Function Attrs: mustprogress nounwind uwtable
define linkonce_odr noundef float @_ZSt4sqrtf(float noundef %0) #7 comdat {
  %2 = alloca float, align 4
  store float %0, ptr %2, align 4
  %3 = load float, ptr %2, align 4
  %4 = call float @sqrtf(float noundef %3) #3
  ret float %4
}

; Function Attrs: mustprogress nounwind uwtable
define linkonce_odr hidden void @_ZN2cv6Point_IfEC2Ev(ptr noundef nonnull align 4 dereferenceable(8) %0) unnamed_addr #7 comdat align 2 {
  %2 = alloca ptr, align 8
  store ptr %0, ptr %2, align 8
  %3 = load ptr, ptr %2, align 8
  %4 = getelementptr inbounds %"class.cv::Point_", ptr %3, i32 0, i32 0
  store float 0.000000e+00, ptr %4, align 4
  %5 = getelementptr inbounds %"class.cv::Point_", ptr %3, i32 0, i32 1
  store float 0.000000e+00, ptr %5, align 4
  ret void
}

; Function Attrs: mustprogress uwtable
define internal void @_ZN2cv9videostabL38estimateGlobMotionLeastSquaresRotationEiPNS_6Point_IfEES3_Pf(ptr dead_on_unwind noalias writable sret(%"class.cv::Mat") align 8 %0, i32 noundef %1, ptr noundef %2, ptr noundef %3, ptr noundef %4) #4 personality ptr @__gxx_personality_v0 {
  %6 = alloca ptr, align 8
  %7 = alloca i32, align 4
  %8 = alloca ptr, align 8
  %9 = alloca ptr, align 8
  %10 = alloca ptr, align 8
  %11 = alloca %"class.cv::Point_", align 4
  %12 = alloca %"class.cv::Point_", align 4
  %13 = alloca float, align 4
  %14 = alloca float, align 4
  %15 = alloca i32, align 4
  %16 = alloca float, align 4
  %17 = alloca i1, align 1
  %18 = alloca %"class.cv::MatExpr", align 8
  %19 = alloca ptr, align 8
  %20 = alloca i32, align 4
  %21 = alloca float, align 4
  %22 = alloca float, align 4
  %23 = alloca i32, align 4
  store ptr %0, ptr %6, align 8
  store i32 %1, ptr %7, align 4
  store ptr %2, ptr %8, align 8
  store ptr %3, ptr %9, align 8
  store ptr %4, ptr %10, align 8
  call void @_ZN2cv6Point_IfEC2Ev(ptr noundef nonnull align 4 dereferenceable(8) %11)
  call void @_ZN2cv6Point_IfEC2Ev(ptr noundef nonnull align 4 dereferenceable(8) %12)
  store float 0.000000e+00, ptr %13, align 4
  store float 0.000000e+00, ptr %14, align 4
  store i32 0, ptr %15, align 4
  br label %24

24:                                               ; preds = %62, %5
  %25 = load i32, ptr %15, align 4
  %26 = load i32, ptr %7, align 4
  %27 = icmp slt i32 %25, %26
  br i1 %27, label %28, label %65

28:                                               ; preds = %24
  %29 = load ptr, ptr %8, align 8
  %30 = load i32, ptr %15, align 4
  %31 = sext i32 %30 to i64
  %32 = getelementptr inbounds %"class.cv::Point_", ptr %29, i64 %31
  call void @llvm.memcpy.p0.p0.i64(ptr align 4 %11, ptr align 4 %32, i64 8, i1 false)
  %33 = load ptr, ptr %9, align 8
  %34 = load i32, ptr %15, align 4
  %35 = sext i32 %34 to i64
  %36 = getelementptr inbounds %"class.cv::Point_", ptr %33, i64 %35
  call void @llvm.memcpy.p0.p0.i64(ptr align 4 %12, ptr align 4 %36, i64 8, i1 false)
  %37 = getelementptr inbounds %"class.cv::Point_", ptr %11, i32 0, i32 0
  %38 = load float, ptr %37, align 4
  %39 = getelementptr inbounds %"class.cv::Point_", ptr %12, i32 0, i32 0
  %40 = load float, ptr %39, align 4
  %41 = getelementptr inbounds %"class.cv::Point_", ptr %11, i32 0, i32 1
  %42 = load float, ptr %41, align 4
  %43 = getelementptr inbounds %"class.cv::Point_", ptr %12, i32 0, i32 1
  %44 = load float, ptr %43, align 4
  %45 = fmul float %42, %44
  %46 = call float @llvm.fmuladd.f32(float %38, float %40, float %45)
  %47 = load float, ptr %13, align 4
  %48 = fadd float %47, %46
  store float %48, ptr %13, align 4
  %49 = getelementptr inbounds %"class.cv::Point_", ptr %11, i32 0, i32 0
  %50 = load float, ptr %49, align 4
  %51 = getelementptr inbounds %"class.cv::Point_", ptr %12, i32 0, i32 1
  %52 = load float, ptr %51, align 4
  %53 = getelementptr inbounds %"class.cv::Point_", ptr %12, i32 0, i32 0
  %54 = load float, ptr %53, align 4
  %55 = getelementptr inbounds %"class.cv::Point_", ptr %11, i32 0, i32 1
  %56 = load float, ptr %55, align 4
  %57 = fmul float %54, %56
  %58 = fneg float %57
  %59 = call float @llvm.fmuladd.f32(float %50, float %52, float %58)
  %60 = load float, ptr %14, align 4
  %61 = fadd float %60, %59
  store float %61, ptr %14, align 4
  br label %62

62:                                               ; preds = %28
  %63 = load i32, ptr %15, align 4
  %64 = add nsw i32 %63, 1
  store i32 %64, ptr %15, align 4
  br label %24, !llvm.loop !8

65:                                               ; preds = %24
  %66 = load float, ptr %13, align 4
  %67 = load float, ptr %13, align 4
  %68 = load float, ptr %14, align 4
  %69 = load float, ptr %14, align 4
  %70 = fmul float %68, %69
  %71 = call float @llvm.fmuladd.f32(float %66, float %67, float %70)
  %72 = call noundef float @_ZSt4sqrtf(float noundef %71)
  store float %72, ptr %16, align 4
  store i1 false, ptr %17, align 1
  call void @_ZN2cv3Mat3eyeEiii(ptr dead_on_unwind writable sret(%"class.cv::MatExpr") align 8 %18, i32 noundef 3, i32 noundef 3, i32 noundef 5)
  invoke void @_ZNK2cv7MatExprcvNS_3MatEEv(ptr dead_on_unwind writable sret(%"class.cv::Mat") align 8 %0, ptr noundef nonnull align 8 dereferenceable(352) %18)
          to label %73 unwind label %97

73:                                               ; preds = %65
  call void @_ZN2cv7MatExprD2Ev(ptr noundef nonnull align 8 dereferenceable(352) %18) #3
  %74 = load float, ptr %16, align 4
  %75 = fcmp une float %74, 0.000000e+00
  br i1 %75, label %76, label %105

76:                                               ; preds = %73
  %77 = load float, ptr %14, align 4
  %78 = fneg float %77
  %79 = load float, ptr %16, align 4
  %80 = fdiv float %78, %79
  store float %80, ptr %21, align 4
  %81 = load float, ptr %13, align 4
  %82 = load float, ptr %16, align 4
  %83 = fdiv float %81, %82
  store float %83, ptr %22, align 4
  %84 = load float, ptr %22, align 4
  %85 = invoke noundef nonnull align 4 dereferenceable(4) ptr @_ZN2cv3Mat2atIfEERT_ii(ptr noundef nonnull align 8 dereferenceable(96) %0, i32 noundef 0, i32 noundef 0)
          to label %86 unwind label %101

86:                                               ; preds = %76
  store float %84, ptr %85, align 4
  %87 = load float, ptr %22, align 4
  %88 = invoke noundef nonnull align 4 dereferenceable(4) ptr @_ZN2cv3Mat2atIfEERT_ii(ptr noundef nonnull align 8 dereferenceable(96) %0, i32 noundef 1, i32 noundef 1)
          to label %89 unwind label %101

89:                                               ; preds = %86
  store float %87, ptr %88, align 4
  %90 = load float, ptr %21, align 4
  %91 = invoke noundef nonnull align 4 dereferenceable(4) ptr @_ZN2cv3Mat2atIfEERT_ii(ptr noundef nonnull align 8 dereferenceable(96) %0, i32 noundef 0, i32 noundef 1)
          to label %92 unwind label %101

92:                                               ; preds = %89
  store float %90, ptr %91, align 4
  %93 = load float, ptr %21, align 4
  %94 = fneg float %93
  %95 = invoke noundef nonnull align 4 dereferenceable(4) ptr @_ZN2cv3Mat2atIfEERT_ii(ptr noundef nonnull align 8 dereferenceable(96) %0, i32 noundef 1, i32 noundef 0)
          to label %96 unwind label %101

96:                                               ; preds = %92
  store float %94, ptr %95, align 4
  br label %105

97:                                               ; preds = %65
  %98 = landingpad { ptr, i32 }
          cleanup
  %99 = extractvalue { ptr, i32 } %98, 0
  store ptr %99, ptr %19, align 8
  %100 = extractvalue { ptr, i32 } %98, 1
  store i32 %100, ptr %20, align 4
  call void @_ZN2cv7MatExprD2Ev(ptr noundef nonnull align 8 dereferenceable(352) %18) #3
  br label %178

101:                                              ; preds = %151, %144, %140, %133, %126, %114, %92, %89, %86, %76
  %102 = landingpad { ptr, i32 }
          cleanup
  %103 = extractvalue { ptr, i32 } %102, 0
  store ptr %103, ptr %19, align 8
  %104 = extractvalue { ptr, i32 } %102, 1
  store i32 %104, ptr %20, align 4
  call void @_ZN2cv3MatD1Ev(ptr noundef nonnull align 8 dereferenceable(96) %0) #3
  br label %178

105:                                              ; preds = %96, %73
  %106 = load ptr, ptr %10, align 8
  %107 = icmp ne ptr %106, null
  br i1 %107, label %108, label %174

108:                                              ; preds = %105
  %109 = load ptr, ptr %10, align 8
  store float 0.000000e+00, ptr %109, align 4
  store i32 0, ptr %23, align 4
  br label %110

110:                                              ; preds = %163, %108
  %111 = load i32, ptr %23, align 4
  %112 = load i32, ptr %7, align 4
  %113 = icmp slt i32 %111, %112
  br i1 %113, label %114, label %166

114:                                              ; preds = %110
  %115 = load ptr, ptr %8, align 8
  %116 = load i32, ptr %23, align 4
  %117 = sext i32 %116 to i64
  %118 = getelementptr inbounds %"class.cv::Point_", ptr %115, i64 %117
  call void @llvm.memcpy.p0.p0.i64(ptr align 4 %11, ptr align 4 %118, i64 8, i1 false)
  %119 = load ptr, ptr %9, align 8
  %120 = load i32, ptr %23, align 4
  %121 = sext i32 %120 to i64
  %122 = getelementptr inbounds %"class.cv::Point_", ptr %119, i64 %121
  call void @llvm.memcpy.p0.p0.i64(ptr align 4 %12, ptr align 4 %122, i64 8, i1 false)
  %123 = getelementptr inbounds %"class.cv::Point_", ptr %12, i32 0, i32 0
  %124 = load float, ptr %123, align 4
  %125 = invoke noundef nonnull align 4 dereferenceable(4) ptr @_ZN2cv3Mat2atIfEERT_ii(ptr noundef nonnull align 8 dereferenceable(96) %0, i32 noundef 0, i32 noundef 0)
          to label %126 unwind label %101

126:                                              ; preds = %114
  %127 = load float, ptr %125, align 4
  %128 = getelementptr inbounds %"class.cv::Point_", ptr %11, i32 0, i32 0
  %129 = load float, ptr %128, align 4
  %130 = fneg float %127
  %131 = call float @llvm.fmuladd.f32(float %130, float %129, float %124)
  %132 = invoke noundef nonnull align 4 dereferenceable(4) ptr @_ZN2cv3Mat2atIfEERT_ii(ptr noundef nonnull align 8 dereferenceable(96) %0, i32 noundef 0, i32 noundef 1)
          to label %133 unwind label %101

133:                                              ; preds = %126
  %134 = load float, ptr %132, align 4
  %135 = getelementptr inbounds %"class.cv::Point_", ptr %11, i32 0, i32 1
  %136 = load float, ptr %135, align 4
  %137 = fneg float %134
  %138 = call float @llvm.fmuladd.f32(float %137, float %136, float %131)
  %139 = invoke noundef float @_Z3sqrf(float noundef %138)
          to label %140 unwind label %101

140:                                              ; preds = %133
  %141 = getelementptr inbounds %"class.cv::Point_", ptr %12, i32 0, i32 1
  %142 = load float, ptr %141, align 4
  %143 = invoke noundef nonnull align 4 dereferenceable(4) ptr @_ZN2cv3Mat2atIfEERT_ii(ptr noundef nonnull align 8 dereferenceable(96) %0, i32 noundef 1, i32 noundef 0)
          to label %144 unwind label %101

144:                                              ; preds = %140
  %145 = load float, ptr %143, align 4
  %146 = getelementptr inbounds %"class.cv::Point_", ptr %11, i32 0, i32 0
  %147 = load float, ptr %146, align 4
  %148 = fneg float %145
  %149 = call float @llvm.fmuladd.f32(float %148, float %147, float %142)
  %150 = invoke noundef nonnull align 4 dereferenceable(4) ptr @_ZN2cv3Mat2atIfEERT_ii(ptr noundef nonnull align 8 dereferenceable(96) %0, i32 noundef 1, i32 noundef 1)
          to label %151 unwind label %101

151:                                              ; preds = %144
  %152 = load float, ptr %150, align 4
  %153 = getelementptr inbounds %"class.cv::Point_", ptr %11, i32 0, i32 1
  %154 = load float, ptr %153, align 4
  %155 = fneg float %152
  %156 = call float @llvm.fmuladd.f32(float %155, float %154, float %149)
  %157 = invoke noundef float @_Z3sqrf(float noundef %156)
          to label %158 unwind label %101

158:                                              ; preds = %151
  %159 = fadd float %139, %157
  %160 = load ptr, ptr %10, align 8
  %161 = load float, ptr %160, align 4
  %162 = fadd float %161, %159
  store float %162, ptr %160, align 4
  br label %163

163:                                              ; preds = %158
  %164 = load i32, ptr %23, align 4
  %165 = add nsw i32 %164, 1
  store i32 %165, ptr %23, align 4
  br label %110, !llvm.loop !9

166:                                              ; preds = %110
  %167 = load ptr, ptr %10, align 8
  %168 = load float, ptr %167, align 4
  %169 = load i32, ptr %7, align 4
  %170 = sitofp i32 %169 to float
  %171 = fdiv float %168, %170
  %172 = call noundef float @_ZSt4sqrtf(float noundef %171)
  %173 = load ptr, ptr %10, align 8
  store float %172, ptr %173, align 4
  br label %174

174:                                              ; preds = %166, %105
  store i1 true, ptr %17, align 1
  %175 = load i1, ptr %17, align 1
  br i1 %175, label %177, label %176

176:                                              ; preds = %174
  call void @_ZN2cv3MatD1Ev(ptr noundef nonnull align 8 dereferenceable(96) %0) #3
  br label %177

177:                                              ; preds = %176, %174
  ret void

178:                                              ; preds = %101, %97
  %179 = load ptr, ptr %19, align 8
  %180 = load i32, ptr %20, align 4
  %181 = insertvalue { ptr, i32 } poison, ptr %179, 0
  %182 = insertvalue { ptr, i32 } %181, i32 %180, 1
  resume { ptr, i32 } %182
}