; Function Attrs: mustprogress uwtable
define internal void @_ZN2cv9videostabL38estimateGlobMotionLeastSquaresRotationEiPNS_6Point_IfEES3_Pf(ptr dead_on_unwind noalias writable sret(%"class.cv::Mat") align 8 %0, i32 noundef %1, ptr nocapture noundef readonly %2, ptr nocapture noundef readonly %3, ptr noundef writeonly %4) #3 personality ptr @__gxx_personality_v0 {
  %6 = alloca %"class.cv::MatExpr", align 8
  %7 = icmp sgt i32 %1, 0
  br i1 %7, label %.lr.ph.preheader, label %._crit_edge

.lr.ph.preheader:                                 ; preds = %5
  %wide.trip.count = zext nneg i32 %1 to i64
  br label %.lr.ph

.lr.ph:                                           ; preds = %.lr.ph.preheader, %.lr.ph
  %indvars.iv = phi i64 [ 0, %.lr.ph.preheader ], [ %indvars.iv.next, %.lr.ph ]
  %8 = phi <2 x float> [ zeroinitializer, %.lr.ph.preheader ], [ %24, %.lr.ph ]
  %9 = getelementptr inbounds %"class.cv::Point_", ptr %2, i64 %indvars.iv
  %10 = load float, ptr %9, align 4
  %.sroa_idx50 = getelementptr inbounds i8, ptr %9, i64 4
  %11 = load float, ptr %.sroa_idx50, align 4
  %12 = getelementptr inbounds %"class.cv::Point_", ptr %3, i64 %indvars.iv
  %13 = load <2 x float>, ptr %12, align 4
  %14 = extractelement <2 x float> %13, i64 0
  %15 = fneg float %14
  %16 = insertelement <2 x float> poison, float %11, i64 0
  %17 = shufflevector <2 x float> %16, <2 x float> poison, <2 x i32> zeroinitializer
  %18 = shufflevector <2 x float> %13, <2 x float> poison, <2 x i32> <i32 1, i32 poison>
  %19 = insertelement <2 x float> %18, float %15, i64 1
  %20 = fmul <2 x float> %17, %19
  %21 = insertelement <2 x float> poison, float %10, i64 0
  %22 = shufflevector <2 x float> %21, <2 x float> poison, <2 x i32> zeroinitializer
  %23 = tail call <2 x float> @llvm.fmuladd.v2f32(<2 x float> %22, <2 x float> %13, <2 x float> %20)
  %24 = fadd <2 x float> %8, %23
  %indvars.iv.next = add nuw nsw i64 %indvars.iv, 1
  %exitcond.not = icmp eq i64 %indvars.iv.next, %wide.trip.count
  br i1 %exitcond.not, label %._crit_edge, label %.lr.ph, !llvm.loop !26

._crit_edge:                                      ; preds = %.lr.ph, %5
  %25 = phi <2 x float> [ zeroinitializer, %5 ], [ %24, %.lr.ph ]
  %26 = extractelement <2 x float> %25, i64 1
  %27 = fmul float %26, %26
  %28 = extractelement <2 x float> %25, i64 0
  %29 = tail call float @llvm.fmuladd.f32(float %28, float %28, float %27)
  %sqrt = tail call float @llvm.sqrt.f32(float %29)
  call void @_ZN2cv3Mat3eyeEiii(ptr dead_on_unwind nonnull writable sret(%"class.cv::MatExpr") align 8 %6, i32 noundef 3, i32 noundef 3, i32 noundef 5)
  call void @_ZN2cv3MatC1Ev(ptr noundef nonnull align 8 dereferenceable(96) %0) #21
  %30 = load ptr, ptr %6, align 8, !noalias !27
  %31 = load ptr, ptr %30, align 8
  %32 = getelementptr inbounds i8, ptr %31, i64 24
  %33 = load ptr, ptr %32, align 8
  invoke void %33(ptr noundef nonnull align 8 dereferenceable(8) %30, ptr noundef nonnull align 8 dereferenceable(352) %6, ptr noundef nonnull align 8 dereferenceable(96) %0, i32 noundef -1)
          to label %_ZNK2cv7MatExprcvNS_3MatEEv.exit unwind label %.body

.body:                                            ; preds = %._crit_edge
  %34 = landingpad { ptr, i32 }
          cleanup
  call void @_ZN2cv3MatD1Ev(ptr noundef nonnull align 8 dereferenceable(96) %0) #21
  call void @_ZN2cv7MatExprD2Ev(ptr noundef nonnull align 8 dereferenceable(352) %6) #21
  resume { ptr, i32 } %34

_ZNK2cv7MatExprcvNS_3MatEEv.exit:                 ; preds = %._crit_edge
  %35 = getelementptr inbounds i8, ptr %6, i64 208
  call void @_ZN2cv3MatD1Ev(ptr noundef nonnull align 8 dereferenceable(96) %35) #21
  %36 = getelementptr inbounds i8, ptr %6, i64 112
  call void @_ZN2cv3MatD1Ev(ptr noundef nonnull align 8 dereferenceable(96) %36) #21
  %37 = getelementptr inbounds i8, ptr %6, i64 16
  call void @_ZN2cv3MatD1Ev(ptr noundef nonnull align 8 dereferenceable(96) %37) #21
  %38 = fcmp une float %sqrt, 0.000000e+00
  br i1 %38, label %39, label %58

39:                                               ; preds = %_ZNK2cv7MatExprcvNS_3MatEEv.exit
  %40 = fneg float %26
  %41 = fdiv float %40, %sqrt
  %42 = fdiv float %28, %sqrt
  %43 = getelementptr inbounds i8, ptr %0, i64 16
  %44 = load ptr, ptr %43, align 8
  %45 = getelementptr inbounds i8, ptr %0, i64 72
  store float %42, ptr %44, align 4
  %46 = load ptr, ptr %43, align 8
  %47 = load ptr, ptr %45, align 8
  %48 = load i64, ptr %47, align 8
  %49 = getelementptr inbounds i8, ptr %46, i64 %48
  %50 = getelementptr inbounds i8, ptr %49, i64 4
  store float %42, ptr %50, align 4
  %51 = load ptr, ptr %43, align 8
  %52 = getelementptr inbounds i8, ptr %51, i64 4
  store float %41, ptr %52, align 4
  %53 = fneg float %41
  %54 = load ptr, ptr %43, align 8
  %55 = load ptr, ptr %45, align 8
  %56 = load i64, ptr %55, align 8
  %57 = getelementptr inbounds i8, ptr %54, i64 %56
  store float %53, ptr %57, align 4
  br label %58

58:                                               ; preds = %39, %_ZNK2cv7MatExprcvNS_3MatEEv.exit
  %.not = icmp eq ptr %4, null
  br i1 %.not, label %99, label %59

59:                                               ; preds = %58
  store float 0.000000e+00, ptr %4, align 4
  br i1 %7, label %.lr.ph63, label %._crit_edge64

.lr.ph63:                                         ; preds = %59
  %60 = getelementptr inbounds i8, ptr %0, i64 16
  %61 = load ptr, ptr %60, align 8
  %62 = getelementptr inbounds i8, ptr %0, i64 72
  %63 = load ptr, ptr %62, align 8
  %64 = getelementptr inbounds i8, ptr %61, i64 4
  %wide.trip.count70 = zext nneg i32 %1 to i64
  br label %65

65:                                               ; preds = %.lr.ph63, %65
  %66 = phi float [ 0.000000e+00, %.lr.ph63 ], [ %94, %65 ]
  %indvars.iv67 = phi i64 [ 0, %.lr.ph63 ], [ %indvars.iv.next68, %65 ]
  %67 = getelementptr inbounds %"class.cv::Point_", ptr %2, i64 %indvars.iv67
  %68 = load float, ptr %67, align 4
  %.sroa_idx48 = getelementptr inbounds i8, ptr %67, i64 4
  %69 = load float, ptr %.sroa_idx48, align 4
  %70 = getelementptr inbounds %"class.cv::Point_", ptr %3, i64 %indvars.iv67
  %71 = load float, ptr %61, align 4
  %72 = load float, ptr %64, align 4
  %73 = load i64, ptr %63, align 8
  %74 = getelementptr inbounds i8, ptr %61, i64 %73
  %75 = load float, ptr %74, align 4
  %76 = getelementptr inbounds i8, ptr %74, i64 4
  %77 = load float, ptr %76, align 4
  %78 = load <2 x float>, ptr %70, align 4
  %79 = insertelement <2 x float> poison, float %71, i64 0
  %80 = insertelement <2 x float> %79, float %75, i64 1
  %81 = fneg <2 x float> %80
  %82 = insertelement <2 x float> poison, float %68, i64 0
  %83 = shufflevector <2 x float> %82, <2 x float> poison, <2 x i32> zeroinitializer
  %84 = call <2 x float> @llvm.fmuladd.v2f32(<2 x float> %81, <2 x float> %83, <2 x float> %78)
  %85 = insertelement <2 x float> poison, float %72, i64 0
  %86 = insertelement <2 x float> %85, float %77, i64 1
  %87 = fneg <2 x float> %86
  %88 = insertelement <2 x float> poison, float %69, i64 0
  %89 = shufflevector <2 x float> %88, <2 x float> poison, <2 x i32> zeroinitializer
  %90 = call <2 x float> @llvm.fmuladd.v2f32(<2 x float> %87, <2 x float> %89, <2 x float> %84)
  %91 = fmul <2 x float> %90, %90
  %shift = shufflevector <2 x float> %91, <2 x float> poison, <2 x i32> <i32 1, i32 poison>
  %92 = fadd <2 x float> %91, %shift
  %93 = extractelement <2 x float> %92, i64 0
  %94 = fadd float %66, %93
  store float %94, ptr %4, align 4
  %indvars.iv.next68 = add nuw nsw i64 %indvars.iv67, 1
  %exitcond71.not = icmp eq i64 %indvars.iv.next68, %wide.trip.count70
  br i1 %exitcond71.not, label %._crit_edge64, label %65, !llvm.loop !30

._crit_edge64:                                    ; preds = %65, %59
  %95 = phi float [ 0.000000e+00, %59 ], [ %94, %65 ]
  %96 = sitofp i32 %1 to float
  %97 = fdiv float %95, %96
  %98 = call noundef float @sqrtf(float noundef %97) #21
  store float %98, ptr %4, align 4
  br label %99

99:                                               ; preds = %58, %._crit_edge64
  ret void
}